; Function Attrs: mustprogress ssp uwtable
define void @_ZNK6open3d13visualization22SelectionPolygonVolume25CropTriangleMeshInPolygonERKNS_8geometry12TriangleMeshE(ptr dead_on_unwind noalias writable sret(%"class.std::shared_ptr.31") align 8 %0, ptr noundef nonnull readonly align 8 captures(none) dereferenceable(80) %1, ptr noundef nonnull align 8 dereferenceable(288) %2) local_unnamed_addr #1 align 2 personality ptr @__gxx_personality_v0 {
  %4 = alloca %"class.std::vector.26", align 8
  call void @llvm.lifetime.start.p0(i64 24, ptr nonnull %4) #18
  %5 = getelementptr inbounds nuw i8, ptr %2, i64 48
  call void @_ZNK6open3d13visualization22SelectionPolygonVolume13CropInPolygonERKSt6vectorIN5Eigen6MatrixIdLi3ELi1ELi0ELi3ELi1EEESaIS5_EE(ptr dead_on_unwind nonnull writable sret(%"class.std::vector.26") align 8 %4, ptr noundef nonnull align 8 dereferenceable(80) %1, ptr noundef nonnull align 8 dereferenceable(24) %5)
  invoke void @_ZNK6open3d8geometry12TriangleMesh13SelectByIndexERKSt6vectorImSaImEEb(ptr dead_on_unwind writable sret(%"class.std::shared_ptr.31") align 8 %0, ptr noundef nonnull align 8 dereferenceable(288) %2, ptr noundef nonnull align 8 dereferenceable(24) %4, i1 noundef zeroext true)
          to label %6 unwind label %14

6:                                                ; preds = %3
  %7 = load ptr, ptr %4, align 8, !tbaa !60
  %.not.i.i.i = icmp eq ptr %7, null
  br i1 %.not.i.i.i, label %_ZNSt6vectorImSaImEED2Ev.exit, label %8

8:                                                ; preds = %6
  %9 = getelementptr inbounds nuw i8, ptr %4, i64 16
  %10 = load ptr, ptr %9, align 8, !tbaa !63
  %11 = ptrtoint ptr %10 to i64
  %12 = ptrtoint ptr %7 to i64
  %13 = sub i64 %11, %12
  call void @_ZdlPvm(ptr noundef nonnull %7, i64 noundef %13) #17
  br label %_ZNSt6vectorImSaImEED2Ev.exit

_ZNSt6vectorImSaImEED2Ev.exit:                    ; preds = %6, %8
  call void @llvm.lifetime.end.p0(i64 24, ptr nonnull %4) #18
  ret void

14:                                               ; preds = %3
  %15 = landingpad { ptr, i32 }
          cleanup
  %16 = load ptr, ptr %4, align 8, !tbaa !60
  %.not.i.i.i4 = icmp eq ptr %16, null
  br i1 %.not.i.i.i4, label %_ZNSt6vectorImSaImEED2Ev.exit5, label %17

17:                                               ; preds = %14
  %18 = getelementptr inbounds nuw i8, ptr %4, i64 16
  %19 = load ptr, ptr %18, align 8, !tbaa !63
  %20 = ptrtoint ptr %19 to i64
  %21 = ptrtoint ptr %16 to i64
  %22 = sub i64 %20, %21
  call void @_ZdlPvm(ptr noundef nonnull %16, i64 noundef %22) #17
  br label %_ZNSt6vectorImSaImEED2Ev.exit5

_ZNSt6vectorImSaImEED2Ev.exit5:                   ; preds = %14, %17
  call void @llvm.lifetime.end.p0(i64 24, ptr nonnull %4) #18
  resume { ptr, i32 } %15
}